; Function Attrs: mustprogress noreturn uwtable
define void @_ZN2cv9videostab17MotionEstimatorL18estimateERKNS_11_InputArrayES4_Pb(ptr dead_on_unwind noalias nocapture readnone sret(%"class.cv::Mat") align 8 %0, ptr nocapture nonnull readnone align 8 %1, ptr noundef nonnull align 8 dereferenceable(24) %2, ptr noundef nonnull align 8 dereferenceable(24) %3, ptr nocapture readnone %4) unnamed_addr #9 align 2 personality ptr @__gxx_personality_v0 {
  %6 = alloca %"class.std::__cxx11::basic_string", align 8
  %7 = alloca %"class.std::allocator", align 1
  %8 = alloca %"class.cv::Mat", align 8
  %9 = alloca %"class.cv::Mat", align 8
  %10 = alloca %"class.std::__cxx11::basic_string", align 8
  %11 = alloca %"class.std::allocator", align 1
  %12 = alloca %"class.std::__cxx11::basic_string", align 8
  %13 = alloca %"class.std::allocator", align 1
  %14 = tail call noundef i32 @_ZNK2cv11_InputArray4typeEi(ptr noundef nonnull align 8 dereferenceable(24) %2, i32 noundef -1)
  %15 = tail call noundef i32 @_ZNK2cv11_InputArray4typeEi(ptr noundef nonnull align 8 dereferenceable(24) %3, i32 noundef -1)
  %16 = icmp eq i32 %14, %15
  br i1 %16, label %25, label %17

17:                                               ; preds = %5
  call void @_ZNSaIcEC1Ev(ptr noundef nonnull align 1 dereferenceable(1) %7) #21
  invoke void @_ZNSt7__cxx1112basic_stringIcSt11char_traitsIcESaIcEEC1EPKcRKS3_(ptr noundef nonnull align 8 dereferenceable(32) %6, ptr noundef nonnull @.str.3, ptr noundef nonnull align 1 dereferenceable(1) %7)
          to label %18 unwind label %20

18:                                               ; preds = %17
  invoke void @_ZN2cv5errorEiRKNSt7__cxx1112basic_stringIcSt11char_traitsIcESaIcEEEPKcS9_i(i32 noundef -215, ptr noundef nonnull align 8 dereferenceable(32) %6, ptr noundef nonnull @__func__._ZN2cv9videostab23MotionEstimatorRansacL28estimateERKNS_11_InputArrayES4_Pb, ptr noundef nonnull @.str.1, i32 noundef 543) #22
          to label %19 unwind label %22

19:                                               ; preds = %18
  unreachable

20:                                               ; preds = %17
  %21 = landingpad { ptr, i32 }
          cleanup
  br label %24

22:                                               ; preds = %18
  %23 = landingpad { ptr, i32 }
          cleanup
  call void @_ZNSt7__cxx1112basic_stringIcSt11char_traitsIcESaIcEED1Ev(ptr noundef nonnull align 8 dereferenceable(32) %6) #21
  br label %24

24:                                               ; preds = %22, %20
  %.pn = phi { ptr, i32 } [ %23, %22 ], [ %21, %20 ]
  call void @_ZNSaIcED1Ev(ptr noundef nonnull align 1 dereferenceable(1) %7) #21
  br label %63

25:                                               ; preds = %5
  %26 = tail call noundef i32 @_ZNK2cv11_InputArray4kindEv(ptr noundef nonnull align 8 dereferenceable(24) %2), !noalias !92
  %27 = icmp eq i32 %26, 65536
  br i1 %27, label %28, label %31

28:                                               ; preds = %25
  %29 = getelementptr inbounds i8, ptr %2, i64 8
  %30 = load ptr, ptr %29, align 8, !noalias !92
  call void @_ZN2cv3MatC1ERKS0_(ptr noundef nonnull align 8 dereferenceable(96) %8, ptr noundef nonnull align 8 dereferenceable(96) %30)
  br label %_ZNK2cv11_InputArray6getMatEi.exit

31:                                               ; preds = %25
  call void @_ZNK2cv11_InputArray7getMat_Ei(ptr dead_on_unwind nonnull writable sret(%"class.cv::Mat") align 8 %8, ptr noundef nonnull align 8 dereferenceable(24) %2, i32 noundef -1)
  br label %_ZNK2cv11_InputArray6getMatEi.exit

_ZNK2cv11_InputArray6getMatEi.exit:               ; preds = %28, %31
  %32 = invoke noundef i32 @_ZNK2cv3Mat11checkVectorEiib(ptr noundef nonnull align 8 dereferenceable(96) %8, i32 noundef 2, i32 noundef -1, i1 noundef zeroext true)
          to label %33 unwind label %43

33:                                               ; preds = %_ZNK2cv11_InputArray6getMatEi.exit
  call void @_ZN2cv3MatD1Ev(ptr noundef nonnull align 8 dereferenceable(96) %8) #21
  %34 = call noundef i32 @_ZNK2cv11_InputArray4kindEv(ptr noundef nonnull align 8 dereferenceable(24) %3), !noalias !95
  %35 = icmp eq i32 %34, 65536
  br i1 %35, label %36, label %39

36:                                               ; preds = %33
  %37 = getelementptr inbounds i8, ptr %3, i64 8
  %38 = load ptr, ptr %37, align 8, !noalias !95
  call void @_ZN2cv3MatC1ERKS0_(ptr noundef nonnull align 8 dereferenceable(96) %9, ptr noundef nonnull align 8 dereferenceable(96) %38)
  br label %_ZNK2cv11_InputArray6getMatEi.exit16

39:                                               ; preds = %33
  call void @_ZNK2cv11_InputArray7getMat_Ei(ptr dead_on_unwind nonnull writable sret(%"class.cv::Mat") align 8 %9, ptr noundef nonnull align 8 dereferenceable(24) %3, i32 noundef -1)
  br label %_ZNK2cv11_InputArray6getMatEi.exit16

_ZNK2cv11_InputArray6getMatEi.exit16:             ; preds = %36, %39
  %40 = invoke noundef i32 @_ZNK2cv3Mat11checkVectorEiib(ptr noundef nonnull align 8 dereferenceable(96) %9, i32 noundef 2, i32 noundef -1, i1 noundef zeroext true)
          to label %41 unwind label %45

41:                                               ; preds = %_ZNK2cv11_InputArray6getMatEi.exit16
  %42 = icmp eq i32 %40, %32
  call void @_ZN2cv3MatD1Ev(ptr noundef nonnull align 8 dereferenceable(96) %9) #21
  br i1 %42, label %55, label %47

43:                                               ; preds = %_ZNK2cv11_InputArray6getMatEi.exit
  %44 = landingpad { ptr, i32 }
          cleanup
  call void @_ZN2cv3MatD1Ev(ptr noundef nonnull align 8 dereferenceable(96) %8) #21
  br label %63

45:                                               ; preds = %_ZNK2cv11_InputArray6getMatEi.exit16
  %46 = landingpad { ptr, i32 }
          cleanup
  call void @_ZN2cv3MatD1Ev(ptr noundef nonnull align 8 dereferenceable(96) %9) #21
  br label %63

47:                                               ; preds = %41
  call void @_ZNSaIcEC1Ev(ptr noundef nonnull align 1 dereferenceable(1) %11) #21
  invoke void @_ZNSt7__cxx1112basic_stringIcSt11char_traitsIcESaIcEEC1EPKcRKS3_(ptr noundef nonnull align 8 dereferenceable(32) %10, ptr noundef nonnull @.str.4, ptr noundef nonnull align 1 dereferenceable(1) %11)
          to label %48 unwind label %50

48:                                               ; preds = %47
  invoke void @_ZN2cv5errorEiRKNSt7__cxx1112basic_stringIcSt11char_traitsIcESaIcEEEPKcS9_i(i32 noundef -215, ptr noundef nonnull align 8 dereferenceable(32) %10, ptr noundef nonnull @__func__._ZN2cv9videostab23MotionEstimatorRansacL28estimateERKNS_11_InputArrayES4_Pb, ptr noundef nonnull @.str.1, i32 noundef 545) #22
          to label %49 unwind label %52

49:                                               ; preds = %48
  unreachable

50:                                               ; preds = %47
  %51 = landingpad { ptr, i32 }
          cleanup
  br label %54

52:                                               ; preds = %48
  %53 = landingpad { ptr, i32 }
          cleanup
  call void @_ZNSt7__cxx1112basic_stringIcSt11char_traitsIcESaIcEED1Ev(ptr noundef nonnull align 8 dereferenceable(32) %10) #21
  br label %54

54:                                               ; preds = %52, %50
  %.pn11 = phi { ptr, i32 } [ %53, %52 ], [ %51, %50 ]
  call void @_ZNSaIcED1Ev(ptr noundef nonnull align 1 dereferenceable(1) %11) #21
  br label %63

55:                                               ; preds = %41
  call void @_ZNSaIcEC1Ev(ptr noundef nonnull align 1 dereferenceable(1) %13) #21
  invoke void @_ZNSt7__cxx1112basic_stringIcSt11char_traitsIcESaIcEEC1EPKcRKS3_(ptr noundef nonnull align 8 dereferenceable(32) %12, ptr noundef nonnull @.str.6, ptr noundef nonnull align 1 dereferenceable(1) %13)
          to label %56 unwind label %58

56:                                               ; preds = %55
  invoke void @_ZN2cv5errorEiRKNSt7__cxx1112basic_stringIcSt11char_traitsIcESaIcEEEPKcS9_i(i32 noundef -2, ptr noundef nonnull align 8 dereferenceable(32) %12, ptr noundef nonnull @__func__._ZN2cv9videostab23MotionEstimatorRansacL28estimateERKNS_11_InputArrayES4_Pb, ptr noundef nonnull @.str.1, i32 noundef 550) #22
          to label %57 unwind label %60

57:                                               ; preds = %56
  unreachable

58:                                               ; preds = %55
  %59 = landingpad { ptr, i32 }
          cleanup
  br label %62

60:                                               ; preds = %56
  %61 = landingpad { ptr, i32 }
          cleanup
  call void @_ZNSt7__cxx1112basic_stringIcSt11char_traitsIcESaIcEED1Ev(ptr noundef nonnull align 8 dereferenceable(32) %12) #21
  br label %62

62:                                               ; preds = %60, %58
  %.pn13 = phi { ptr, i32 } [ %61, %60 ], [ %59, %58 ]
  call void @_ZNSaIcED1Ev(ptr noundef nonnull align 1 dereferenceable(1) %13) #21
  br label %63

63:                                               ; preds = %62, %54, %45, %43, %24
  %.pn13.pn = phi { ptr, i32 } [ %.pn13, %62 ], [ %.pn11, %54 ], [ %46, %45 ], [ %44, %43 ], [ %.pn, %24 ]
  resume { ptr, i32 } %.pn13.pn
}